target datalayout = "e-m:e-p270:32:32-p271:32:32-p272:64:64-i64:64-i128:128-f80:128-n8:16:32:64-S128"
target triple = "x86_64-pc-linux-gnu"

%struct.x509_st = type { ptr, ptr, ptr, i32, i32, ptr, %struct.crypto_ex_data_st, i64, i64, i64, i64, i64, i64, ptr, ptr, ptr, ptr, ptr, ptr, [20 x i8], ptr }
%struct.crypto_ex_data_st = type { ptr }
%struct.x509_cinf_st = type { ptr, ptr, ptr, ptr, ptr, ptr, ptr, ptr, ptr, ptr, %struct.ASN1_ENCODING_st }
%struct.ASN1_ENCODING_st = type { ptr, i64, i32 }

; Function Attrs: nounwind uwtable
define hidden ptr @X509_find_by_issuer_and_serial(ptr noundef %0, ptr noundef %1, ptr noundef %2) #0 {
  %4 = alloca ptr, align 8
  %5 = alloca ptr, align 8
  %6 = alloca ptr, align 8
  %7 = alloca ptr, align 8
  %8 = alloca i64, align 8
  %9 = alloca %struct.x509_cinf_st, align 8
  %10 = alloca %struct.x509_st, align 8
  %11 = alloca ptr, align 8
  %12 = alloca i32, align 4
  store ptr %0, ptr %5, align 8, !tbaa !69
  store ptr %1, ptr %6, align 8, !tbaa !37
  store ptr %2, ptr %7, align 8, !tbaa !71
  call void @llvm.lifetime.start.p0(i64 8, ptr %8) #5
  call void @llvm.lifetime.start.p0(i64 104, ptr %9) #5
  call void @llvm.lifetime.start.p0(i64 176, ptr %10) #5
  call void @llvm.lifetime.start.p0(i64 8, ptr %11) #5
  store ptr null, ptr %11, align 8, !tbaa !6
  %13 = load ptr, ptr %5, align 8, !tbaa !69
  %14 = icmp ne ptr %13, null
  br i1 %14, label %16, label %15

15:                                               ; preds = %3
  store ptr null, ptr %4, align 8
  store i32 1, ptr %12, align 4
  br label %41

16:                                               ; preds = %3
  %17 = getelementptr inbounds nuw %struct.x509_st, ptr %10, i32 0, i32 0
  store ptr %9, ptr %17, align 8, !tbaa !11
  %18 = load ptr, ptr %7, align 8, !tbaa !71
  %19 = getelementptr inbounds nuw %struct.x509_cinf_st, ptr %9, i32 0, i32 1
  store ptr %18, ptr %19, align 8, !tbaa !28
  %20 = load ptr, ptr %6, align 8, !tbaa !37
  %21 = getelementptr inbounds nuw %struct.x509_cinf_st, ptr %9, i32 0, i32 3
  store ptr %20, ptr %21, align 8, !tbaa !36
  store i64 0, ptr %8, align 8, !tbaa !44
  br label %22

22:                                               ; preds = %37, %16
  %23 = load i64, ptr %8, align 8, !tbaa !44
  %24 = load ptr, ptr %5, align 8, !tbaa !69
  %25 = call i64 @sk_num(ptr noundef %24)
  %26 = icmp ult i64 %23, %25
  br i1 %26, label %27, label %40

27:                                               ; preds = %22
  %28 = load ptr, ptr %5, align 8, !tbaa !69
  %29 = load i64, ptr %8, align 8, !tbaa !44
  %30 = call ptr @sk_value(ptr noundef %28, i64 noundef %29)
  store ptr %30, ptr %11, align 8, !tbaa !6
  %31 = load ptr, ptr %11, align 8, !tbaa !6
  %32 = call i32 @X509_issuer_and_serial_cmp(ptr noundef %31, ptr noundef %10)
  %33 = icmp eq i32 %32, 0
  br i1 %33, label %34, label %36

34:                                               ; preds = %27
  %35 = load ptr, ptr %11, align 8, !tbaa !6
  store ptr %35, ptr %4, align 8
  store i32 1, ptr %12, align 4
  br label %41

36:                                               ; preds = %27
  br label %37

37:                                               ; preds = %36
  %38 = load i64, ptr %8, align 8, !tbaa !44
  %39 = add i64 %38, 1
  store i64 %39, ptr %8, align 8, !tbaa !44
  br label %22, !llvm.loop !72

40:                                               ; preds = %22
  store ptr null, ptr %4, align 8
  store i32 1, ptr %12, align 4
  br label %41

41:                                               ; preds = %40, %34, %15
  call void @llvm.lifetime.end.p0(i64 8, ptr %11) #5
  call void @llvm.lifetime.end.p0(i64 176, ptr %10) #5
  call void @llvm.lifetime.end.p0(i64 104, ptr %9) #5
  call void @llvm.lifetime.end.p0(i64 8, ptr %8) #5
  %42 = load ptr, ptr %4, align 8
  ret ptr %42
}