; Function Attrs: nounwind uwtable
define hidden noundef ptr @X509_find_by_issuer_and_serial(ptr noundef %0, ptr noundef %1, ptr noundef %2) local_unnamed_addr #0 {
  %4 = alloca %struct.x509_cinf_st, align 8
  %5 = alloca %struct.x509_st, align 8
  call void @llvm.lifetime.start.p0(i64 104, ptr nonnull %4) #8
  call void @llvm.lifetime.start.p0(i64 176, ptr nonnull %5) #8
  %.not = icmp eq ptr %0, null
  br i1 %.not, label %.loopexit, label %6

6:                                                ; preds = %3
  store ptr %4, ptr %5, align 8, !tbaa !6
  %7 = getelementptr inbounds nuw i8, ptr %4, i64 8
  store ptr %2, ptr %7, align 8, !tbaa !25
  %8 = getelementptr inbounds nuw i8, ptr %4, i64 24
  store ptr %1, ptr %8, align 8, !tbaa !32
  %9 = call i64 @sk_num(ptr noundef nonnull %0) #8
  %.not15 = icmp eq i64 %9, 0
  br i1 %.not15, label %.loopexit, label %.lr.ph

10:                                               ; preds = %.lr.ph
  %11 = add nuw i64 %.012, 1
  %12 = call i64 @sk_num(ptr noundef nonnull %0) #8
  %13 = icmp ult i64 %11, %12
  br i1 %13, label %.lr.ph, label %.loopexit, !llvm.loop !59

.lr.ph:                                           ; preds = %6, %10
  %.012 = phi i64 [ %11, %10 ], [ 0, %6 ]
  %14 = call ptr @sk_value(ptr noundef nonnull %0, i64 noundef %.012) #8
  %15 = call i32 @X509_issuer_and_serial_cmp(ptr noundef %14, ptr noundef nonnull %5)
  %16 = icmp eq i32 %15, 0
  br i1 %16, label %.loopexit, label %10

.loopexit:                                        ; preds = %.lr.ph, %10, %6, %3
  %.010 = phi ptr [ null, %3 ], [ null, %6 ], [ %14, %.lr.ph ], [ null, %10 ]
  call void @llvm.lifetime.end.p0(i64 176, ptr nonnull %5) #8
  call void @llvm.lifetime.end.p0(i64 104, ptr nonnull %4) #8
  ret ptr %.010
}